; ModuleID = 'source-C-CXX/30/1934.c'
source_filename = "source-C-CXX/30/1934.c"
target datalayout = "e-m:e-p270:32:32-p271:32:32-p272:64:64-i64:64-f80:128-n8:16:32:64-S128"
target triple = "x86_64-pc-linux-gnu"

%struct.student = type { [9 x i8], [20 x i8], i8, i32, [8 x i8], [20 x i8], %struct.student*, %struct.student* }

@.str = private unnamed_addr constant [3 x i8] c"%s\00", align 1
@.str.1 = private unnamed_addr constant [12 x i8] c"%s %c%d%s%s\00", align 1
@.str.2 = private unnamed_addr constant [19 x i8] c"%s %s %c %d %s %s\0A\00", align 1

; Function Attrs: nofree nounwind sspstrong uwtable
define dso_local i32 @main() local_unnamed_addr #0 {
  %1 = tail call noalias align 16 dereferenceable_or_null(80) i8* @malloc(i64 80) #3
  %2 = getelementptr inbounds i8, i8* %1, i64 72
  %3 = bitcast i8* %2 to %struct.student**
  store %struct.student* null, %struct.student** %3, align 8, !tbaa !5
  %4 = tail call i32 (i8*, ...) @__isoc99_scanf(i8* getelementptr inbounds ([3 x i8], [3 x i8]* @.str, i64 0, i64 0), i8* %1)
  %5 = load i8, i8* %1, align 16, !tbaa !11
  %6 = icmp eq i8 %5, 101
  br i1 %6, label %23, label %7

7:                                                ; preds = %0, %7
  %8 = phi i8* [ %15, %7 ], [ %1, %0 ]
  %9 = getelementptr inbounds i8, i8* %8, i64 9
  %10 = getelementptr inbounds i8, i8* %8, i64 29
  %11 = getelementptr inbounds i8, i8* %8, i64 32
  %12 = getelementptr inbounds i8, i8* %8, i64 36
  %13 = getelementptr inbounds i8, i8* %8, i64 44
  %14 = tail call i32 (i8*, ...) @__isoc99_scanf(i8* getelementptr inbounds ([12 x i8], [12 x i8]* @.str.1, i64 0, i64 0), i8* nonnull %9, i8* nonnull %10, i8* nonnull %11, i8* nonnull %12, i8* nonnull %13)
  %15 = tail call noalias align 16 dereferenceable_or_null(80) i8* @malloc(i64 80) #3
  %16 = getelementptr inbounds i8, i8* %8, i64 64
  %17 = bitcast i8* %16 to i8**
  store i8* %15, i8** %17, align 16, !tbaa !12
  %18 = getelementptr inbounds i8, i8* %15, i64 72
  %19 = bitcast i8* %18 to i8**
  store i8* %8, i8** %19, align 8, !tbaa !5
  %20 = tail call i32 (i8*, ...) @__isoc99_scanf(i8* getelementptr inbounds ([3 x i8], [3 x i8]* @.str, i64 0, i64 0), i8* %15)
  %21 = load i8, i8* %15, align 16, !tbaa !11
  %22 = icmp eq i8 %21, 101
  br i1 %22, label %23, label %7

23:                                               ; preds = %7, %0
  %24 = phi i8* [ %1, %0 ], [ %15, %7 ]
  %25 = getelementptr inbounds i8, i8* %24, i64 64
  %26 = bitcast i8* %25 to %struct.student**
  store %struct.student* null, %struct.student** %26, align 16, !tbaa !12
  %27 = getelementptr inbounds i8, i8* %24, i64 72
  %28 = bitcast i8* %27 to %struct.student**
  %29 = load %struct.student*, %struct.student** %28, align 8, !tbaa !5
  %30 = icmp eq %struct.student* %29, null
  br i1 %30, label %46, label %31

31:                                               ; preds = %23, %31
  %32 = phi %struct.student* [ %44, %31 ], [ %29, %23 ]
  %33 = getelementptr inbounds %struct.student, %struct.student* %32, i64 0, i32 0, i64 0
  %34 = getelementptr inbounds %struct.student, %struct.student* %32, i64 0, i32 1, i64 0
  %35 = getelementptr inbounds %struct.student, %struct.student* %32, i64 0, i32 2
  %36 = load i8, i8* %35, align 1, !tbaa !13
  %37 = sext i8 %36 to i32
  %38 = getelementptr inbounds %struct.student, %struct.student* %32, i64 0, i32 3
  %39 = load i32, i32* %38, align 8, !tbaa !14
  %40 = getelementptr inbounds %struct.student, %struct.student* %32, i64 0, i32 4, i64 0
  %41 = getelementptr inbounds %struct.student, %struct.student* %32, i64 0, i32 5, i64 0
  %42 = tail call i32 (i8*, ...) @printf(i8* nonnull dereferenceable(1) getelementptr inbounds ([19 x i8], [19 x i8]* @.str.2, i64 0, i64 0), i8* nonnull %33, i8* nonnull %34, i32 %37, i32 %39, i8* nonnull %40, i8* nonnull %41)
  %43 = getelementptr inbounds %struct.student, %struct.student* %32, i64 0, i32 7
  %44 = load %struct.student*, %struct.student** %43, align 8, !tbaa !5
  %45 = icmp eq %struct.student* %44, null
  br i1 %45, label %46, label %31, !llvm.loop !15

46:                                               ; preds = %31, %23
  ret i32 0
}

; Function Attrs: inaccessiblememonly mustprogress nofree nounwind willreturn
declare noalias noundef align 16 i8* @malloc(i64 noundef) local_unnamed_addr #1

; Function Attrs: nofree nounwind
declare noundef i32 @__isoc99_scanf(i8* nocapture noundef readonly, ...) local_unnamed_addr #2

; Function Attrs: nofree nounwind
declare noundef i32 @printf(i8* nocapture noundef readonly, ...) local_unnamed_addr #2


!llvm.module.flags = !{!0, !1, !2, !3}
!llvm.ident = !{!4}

!0 = !{i32 1, !"wchar_size", i32 4}
!1 = !{i32 7, !"PIC Level", i32 2}
!2 = !{i32 7, !"PIE Level", i32 2}
!3 = !{i32 7, !"uwtable", i32 1}
!4 = !{!"clang version 13.0.0"}
!5 = !{!6, !10, i64 72}
!6 = !{!"student", !7, i64 0, !7, i64 9, !7, i64 29, !9, i64 32, !7, i64 36, !7, i64 44, !10, i64 64, !10, i64 72}
!7 = !{!"omnipotent char", !8, i64 0}
!8 = !{!"Simple C/C++ TBAA"}
!9 = !{!"int", !7, i64 0}
!10 = !{!"any pointer", !7, i64 0}
!11 = !{!7, !7, i64 0}
!12 = !{!6, !10, i64 64}
!13 = !{!6, !7, i64 29}
!14 = !{!6, !9, i64 32}
!15 = distinct !{!15, !16}
!16 = !{!"llvm.loop.mustprogress"}
